target datalayout = "e-m:e-p270:32:32-p271:32:32-p272:64:64-i64:64-i128:128-f80:128-n8:16:32:64-S128"
target triple = "x86_64-pc-linux-gnu"

%class.ResolvedMethodEntry = type { ptr, %union.anon.9, i16, i16, i8, i8, i8, i8 }
%union.anon.9 = type { ptr }
%class.Rewriter = type { ptr, %class.constantPoolHandle, ptr, %class.GrowableArray, %class.GrowableArray, %class.GrowableArray, %class.GrowableArray, %class.GrowableArray, i32, i32, i32, i32, %class.GrowableArray.0, %class.GrowableArray.3, %class.GrowableArray.6 }
%class.constantPoolHandle = type { ptr, ptr }
%class.GrowableArray = type { %class.GrowableArrayWithAllocator, %class.GrowableArrayMetadata }
%class.GrowableArrayWithAllocator = type { %class.GrowableArrayView }
%class.GrowableArrayView = type { %class.GrowableArrayBase, ptr }
%class.GrowableArrayBase = type { i32, i32 }
%class.GrowableArrayMetadata = type { i64 }
%class.GrowableArray.0 = type { %class.GrowableArrayWithAllocator.1, %class.GrowableArrayMetadata }
%class.GrowableArrayWithAllocator.1 = type { %class.GrowableArrayView.2 }
%class.GrowableArrayView.2 = type { %class.GrowableArrayBase, ptr }
%class.GrowableArray.3 = type { %class.GrowableArrayWithAllocator.4, %class.GrowableArrayMetadata }
%class.GrowableArrayWithAllocator.4 = type { %class.GrowableArrayView.5 }
%class.GrowableArrayView.5 = type { %class.GrowableArrayBase, ptr }
%class.GrowableArray.6 = type { %class.GrowableArrayWithAllocator.7, %class.GrowableArrayMetadata }
%class.GrowableArrayWithAllocator.7 = type { %class.GrowableArrayView.8 }
%class.GrowableArrayView.8 = type { %class.GrowableArrayBase, ptr }

@_ZN6Symbol11_vm_symbolsE = external global [0 x ptr], align 8
@_ZN9vmClasses8_klassesE = external global [0 x ptr], align 8

; Function Attrs: mustprogress nounwind uwtable
define linkonce_odr hidden void @_ZN19ResolvedMethodEntry9set_flagsEh(ptr noundef nonnull align 8 dereferenceable(24) %0, i8 noundef zeroext %1) #1 comdat align 2 {
  %3 = alloca ptr, align 8
  %4 = alloca i8, align 1
  store ptr %0, ptr %3, align 8
  store i8 %1, ptr %4, align 1
  %5 = load ptr, ptr %3, align 8
  %6 = load i8, ptr %4, align 1
  %7 = zext i8 %6 to i32
  %8 = getelementptr inbounds %class.ResolvedMethodEntry, ptr %5, i32 0, i32 5
  %9 = load i8, ptr %8, align 1
  %10 = zext i8 %9 to i32
  %11 = or i32 %10, %7
  %12 = trunc i32 %11 to i8
  store i8 %12, ptr %8, align 1
  ret void
}

; Function Attrs: mustprogress nounwind uwtable
define linkonce_odr hidden noundef ptr @_ZN9vmClasses11check_klassEP13InstanceKlass(ptr noundef %0) #1 comdat align 2 {
  %2 = alloca ptr, align 8
  store ptr %0, ptr %2, align 8
  %3 = load ptr, ptr %2, align 8
  ret ptr %3
}

; Function Attrs: mustprogress nounwind uwtable
define linkonce_odr hidden noundef ptr @_ZNK18constantPoolHandle12non_null_objEv(ptr noundef nonnull align 8 dereferenceable(16) %0) #1 comdat align 2 {
  %2 = alloca ptr, align 8
  store ptr %0, ptr %2, align 8
  %3 = load ptr, ptr %2, align 8
  %4 = getelementptr inbounds %class.constantPoolHandle, ptr %3, i32 0, i32 0
  %5 = load ptr, ptr %4, align 8
  ret ptr %5
}

; Function Attrs: mustprogress nounwind uwtable
define linkonce_odr hidden noundef ptr @_ZN9vmClasses15VarHandle_klassEv() #1 comdat align 2 {
  %1 = load ptr, ptr getelementptr inbounds ([0 x ptr], ptr @_ZN9vmClasses8_klassesE, i64 0, i64 59), align 8
  %2 = call noundef ptr @_ZN9vmClasses11check_klassEP13InstanceKlass(ptr noundef %1)
  ret ptr %2
}

; Function Attrs: mustprogress nounwind uwtable
define linkonce_odr hidden noundef ptr @_ZN9vmSymbols26java_lang_invoke_VarHandleEv() #1 comdat align 2 {
  %1 = load ptr, ptr getelementptr inbounds ([0 x ptr], ptr @_ZN6Symbol11_vm_symbolsE, i64 0, i64 266), align 8
  ret ptr %1
}

; Function Attrs: mustprogress nounwind uwtable
define linkonce_odr hidden void @_ZN19ResolvedMethodEntry29set_resolved_references_indexEt(ptr noundef nonnull align 8 dereferenceable(24) %0, i16 noundef zeroext %1) #1 comdat align 2 {
  %3 = alloca ptr, align 8
  %4 = alloca i16, align 2
  store ptr %0, ptr %3, align 8
  store i16 %1, ptr %4, align 2
  %5 = load ptr, ptr %3, align 8
  call void @_ZN19ResolvedMethodEntry9set_flagsEh(ptr noundef nonnull align 8 dereferenceable(24) %5, i8 noundef zeroext 32)
  %6 = load i16, ptr %4, align 2
  %7 = getelementptr inbounds %class.ResolvedMethodEntry, ptr %5, i32 0, i32 1
  store i16 %6, ptr %7, align 8
  ret void
}

; Function Attrs: mustprogress nounwind uwtable
define linkonce_odr hidden noundef nonnull align 8 dereferenceable(24) ptr @_ZN17GrowableArrayViewI19ResolvedMethodEntryE2atEi(ptr noundef nonnull align 8 dereferenceable(16) %0, i32 noundef %1) #1 comdat align 2 {
  %3 = alloca ptr, align 8
  %4 = alloca i32, align 4
  store ptr %0, ptr %3, align 8
  store i32 %1, ptr %4, align 4
  %5 = load ptr, ptr %3, align 8
  %6 = getelementptr inbounds %class.GrowableArrayView.8, ptr %5, i32 0, i32 1
  %7 = load ptr, ptr %6, align 8
  %8 = load i32, ptr %4, align 4
  %9 = sext i32 %8 to i64
  %10 = getelementptr inbounds %class.ResolvedMethodEntry, ptr %7, i64 %9
  ret ptr %10
}

; Function Attrs: mustprogress nounwind uwtable
define linkonce_odr hidden noundef zeroext i1 @_ZN13MethodHandles29is_signature_polymorphic_nameEP5KlassP6Symbol(ptr noundef %0, ptr noundef %1) #1 comdat align 2 {
  %3 = alloca ptr, align 8
  %4 = alloca ptr, align 8
  store ptr %0, ptr %3, align 8
  store ptr %1, ptr %4, align 8
  %5 = load ptr, ptr %3, align 8
  %6 = load ptr, ptr %4, align 8
  %7 = call noundef i32 @_ZN13MethodHandles29signature_polymorphic_name_idEP5KlassP6Symbol(ptr noundef %5, ptr noundef %6)
  %8 = icmp ne i32 %7, 0
  ret i1 %8
}

; Function Attrs: mustprogress nounwind uwtable
define linkonce_odr hidden noundef ptr @_ZN9vmClasses18MethodHandle_klassEv() #1 comdat align 2 {
  %1 = load ptr, ptr getelementptr inbounds ([0 x ptr], ptr @_ZN9vmClasses8_klassesE, i64 0, i64 58), align 8
  %2 = call noundef ptr @_ZN9vmClasses11check_klassEP13InstanceKlass(ptr noundef %1)
  ret ptr %2
}

; Function Attrs: mustprogress nounwind uwtable
define linkonce_odr hidden noundef ptr @_ZN9vmSymbols29java_lang_invoke_MethodHandleEv() #1 comdat align 2 {
  %1 = load ptr, ptr getelementptr inbounds ([0 x ptr], ptr @_ZN6Symbol11_vm_symbolsE, i64 0, i64 265), align 8
  ret ptr %1
}

; Function Attrs: mustprogress nounwind uwtable
define linkonce_odr hidden noundef ptr @_ZNK18constantPoolHandleptEv(ptr noundef nonnull align 8 dereferenceable(16) %0) #1 comdat align 2 {
  %2 = alloca ptr, align 8
  store ptr %0, ptr %2, align 8
  %3 = load ptr, ptr %2, align 8
  %4 = call noundef ptr @_ZNK18constantPoolHandle12non_null_objEv(ptr noundef nonnull align 8 dereferenceable(16) %3)
  ret ptr %4
}

; Function Attrs: mustprogress nounwind uwtable
define linkonce_odr hidden noundef nonnull align 4 dereferenceable(4) ptr @_ZN17GrowableArrayViewIiE2atEi(ptr noundef nonnull align 8 dereferenceable(16) %0, i32 noundef %1) #1 comdat align 2 {
  %3 = alloca ptr, align 8
  %4 = alloca i32, align 4
  store ptr %0, ptr %3, align 8
  store i32 %1, ptr %4, align 4
  %5 = load ptr, ptr %3, align 8
  %6 = getelementptr inbounds %class.GrowableArrayView, ptr %5, i32 0, i32 1
  %7 = load ptr, ptr %6, align 8
  %8 = load i32, ptr %4, align 4
  %9 = sext i32 %8 to i64
  %10 = getelementptr inbounds i32, ptr %7, i64 %9
  ret ptr %10
}

; Function Attrs: mustprogress nounwind uwtable
define linkonce_odr hidden noundef i32 @_ZNK17GrowableArrayBase6lengthEv(ptr noundef nonnull align 4 dereferenceable(8) %0) #1 comdat align 2 {
  %2 = alloca ptr, align 8
  store ptr %0, ptr %2, align 8
  %3 = load ptr, ptr %2, align 8
  %4 = getelementptr inbounds %class.GrowableArrayBase, ptr %3, i32 0, i32 0
  %5 = load i32, ptr %4, align 4
  ret i32 %5
}

; Function Attrs: mustprogress nounwind uwtable
define hidden void @_ZN8Rewriter26maybe_rewrite_invokehandleEPhiib(ptr noundef nonnull align 8 dereferenceable(240) %0, ptr noundef %1, i32 noundef %2, i32 noundef %3, i1 noundef zeroext %4) #1 align 2 {
  %6 = alloca ptr, align 8
  %7 = alloca ptr, align 8
  %8 = alloca i32, align 4
  %9 = alloca i32, align 4
  %10 = alloca i8, align 1
  %11 = alloca i32, align 4
  %12 = alloca i32, align 4
  %13 = alloca i32, align 4
  store ptr %0, ptr %6, align 8
  store ptr %1, ptr %7, align 8
  store i32 %2, ptr %8, align 4
  store i32 %3, ptr %9, align 4
  %14 = zext i1 %4 to i8
  store i8 %14, ptr %10, align 1
  %15 = load ptr, ptr %6, align 8
  %16 = load i8, ptr %10, align 1
  %17 = trunc i8 %16 to i1
  br i1 %17, label %101, label %18

18:                                               ; preds = %5
  %19 = load ptr, ptr %7, align 8
  %20 = load i8, ptr %19, align 1
  %21 = zext i8 %20 to i32
  %22 = icmp eq i32 %21, 182
  br i1 %22, label %28, label %23

23:                                               ; preds = %18
  %24 = load ptr, ptr %7, align 8
  %25 = load i8, ptr %24, align 1
  %26 = zext i8 %25 to i32
  %27 = icmp eq i32 %26, 183
  br i1 %27, label %28, label %100

28:                                               ; preds = %23, %18
  %29 = load i32, ptr %8, align 4
  %30 = getelementptr inbounds %class.Rewriter, ptr %15, i32 0, i32 7
  %31 = call noundef i32 @_ZNK17GrowableArrayBase6lengthEv(ptr noundef nonnull align 4 dereferenceable(8) %30)
  %32 = icmp sge i32 %29, %31
  br i1 %32, label %33, label %34

33:                                               ; preds = %28
  br label %109

34:                                               ; preds = %28
  %35 = getelementptr inbounds %class.Rewriter, ptr %15, i32 0, i32 7
  %36 = load i32, ptr %8, align 4
  %37 = call noundef nonnull align 4 dereferenceable(4) ptr @_ZN17GrowableArrayViewIiE2atEi(ptr noundef nonnull align 8 dereferenceable(16) %35, i32 noundef %36)
  %38 = load i32, ptr %37, align 4
  store i32 %38, ptr %11, align 4
  %39 = load i32, ptr %11, align 4
  %40 = icmp eq i32 %39, 0
  br i1 %40, label %41, label %94

41:                                               ; preds = %34
  %42 = getelementptr inbounds %class.Rewriter, ptr %15, i32 0, i32 1
  %43 = call noundef ptr @_ZNK18constantPoolHandleptEv(ptr noundef nonnull align 8 dereferenceable(16) %42)
  %44 = load i32, ptr %8, align 4
  %45 = call noundef ptr @_ZN12ConstantPool31uncached_klass_ref_at_noresolveEi(ptr noundef nonnull align 8 dereferenceable(68) %43, i32 noundef %44)
  %46 = call noundef ptr @_ZN9vmSymbols29java_lang_invoke_MethodHandleEv()
  %47 = icmp eq ptr %45, %46
  br i1 %47, label %48, label %64

48:                                               ; preds = %41
  %49 = call noundef ptr @_ZN9vmClasses18MethodHandle_klassEv()
  %50 = getelementptr inbounds %class.Rewriter, ptr %15, i32 0, i32 1
  %51 = call noundef ptr @_ZNK18constantPoolHandleptEv(ptr noundef nonnull align 8 dereferenceable(16) %50)
  %52 = load i32, ptr %8, align 4
  %53 = call noundef ptr @_ZN12ConstantPool20uncached_name_ref_atEi(ptr noundef nonnull align 8 dereferenceable(68) %51, i32 noundef %52)
  %54 = call noundef zeroext i1 @_ZN13MethodHandles29is_signature_polymorphic_nameEP5KlassP6Symbol(ptr noundef %49, ptr noundef %53)
  br i1 %54, label %55, label %64

55:                                               ; preds = %48
  %56 = load i32, ptr %8, align 4
  %57 = load i32, ptr %9, align 4
  %58 = call noundef i32 @_ZN8Rewriter43add_invokedynamic_resolved_references_entryEii(ptr noundef nonnull align 8 dereferenceable(240) %15, i32 noundef %56, i32 noundef %57)
  store i32 %58, ptr %12, align 4
  %59 = getelementptr inbounds %class.Rewriter, ptr %15, i32 0, i32 14
  %60 = load i32, ptr %9, align 4
  %61 = call noundef nonnull align 8 dereferenceable(24) ptr @_ZN17GrowableArrayViewI19ResolvedMethodEntryE2atEi(ptr noundef nonnull align 8 dereferenceable(16) %59, i32 noundef %60)
  %62 = load i32, ptr %12, align 4
  %63 = trunc i32 %62 to i16
  call void @_ZN19ResolvedMethodEntry29set_resolved_references_indexEt(ptr noundef nonnull align 8 dereferenceable(24) %61, i16 noundef zeroext %63)
  store i32 1, ptr %11, align 4
  br label %89

64:                                               ; preds = %48, %41
  %65 = getelementptr inbounds %class.Rewriter, ptr %15, i32 0, i32 1
  %66 = call noundef ptr @_ZNK18constantPoolHandleptEv(ptr noundef nonnull align 8 dereferenceable(16) %65)
  %67 = load i32, ptr %8, align 4
  %68 = call noundef ptr @_ZN12ConstantPool31uncached_klass_ref_at_noresolveEi(ptr noundef nonnull align 8 dereferenceable(68) %66, i32 noundef %67)
  %69 = call noundef ptr @_ZN9vmSymbols26java_lang_invoke_VarHandleEv()
  %70 = icmp eq ptr %68, %69
  br i1 %70, label %71, label %87

71:                                               ; preds = %64
  %72 = call noundef ptr @_ZN9vmClasses15VarHandle_klassEv()
  %73 = getelementptr inbounds %class.Rewriter, ptr %15, i32 0, i32 1
  %74 = call noundef ptr @_ZNK18constantPoolHandleptEv(ptr noundef nonnull align 8 dereferenceable(16) %73)
  %75 = load i32, ptr %8, align 4
  %76 = call noundef ptr @_ZN12ConstantPool20uncached_name_ref_atEi(ptr noundef nonnull align 8 dereferenceable(68) %74, i32 noundef %75)
  %77 = call noundef zeroext i1 @_ZN13MethodHandles29is_signature_polymorphic_nameEP5KlassP6Symbol(ptr noundef %72, ptr noundef %76)
  br i1 %77, label %78, label %87

78:                                               ; preds = %71
  %79 = load i32, ptr %8, align 4
  %80 = load i32, ptr %9, align 4
  %81 = call noundef i32 @_ZN8Rewriter43add_invokedynamic_resolved_references_entryEii(ptr noundef nonnull align 8 dereferenceable(240) %15, i32 noundef %79, i32 noundef %80)
  store i32 %81, ptr %13, align 4
  %82 = getelementptr inbounds %class.Rewriter, ptr %15, i32 0, i32 14
  %83 = load i32, ptr %9, align 4
  %84 = call noundef nonnull align 8 dereferenceable(24) ptr @_ZN17GrowableArrayViewI19ResolvedMethodEntryE2atEi(ptr noundef nonnull align 8 dereferenceable(16) %82, i32 noundef %83)
  %85 = load i32, ptr %13, align 4
  %86 = trunc i32 %85 to i16
  call void @_ZN19ResolvedMethodEntry29set_resolved_references_indexEt(ptr noundef nonnull align 8 dereferenceable(24) %84, i16 noundef zeroext %86)
  store i32 1, ptr %11, align 4
  br label %88

87:                                               ; preds = %71, %64
  store i32 -1, ptr %11, align 4
  br label %88

88:                                               ; preds = %87, %78
  br label %89

89:                                               ; preds = %88, %55
  %90 = load i32, ptr %11, align 4
  %91 = getelementptr inbounds %class.Rewriter, ptr %15, i32 0, i32 7
  %92 = load i32, ptr %8, align 4
  %93 = call noundef nonnull align 4 dereferenceable(4) ptr @_ZN17GrowableArrayViewIiE2atEi(ptr noundef nonnull align 8 dereferenceable(16) %91, i32 noundef %92)
  store i32 %90, ptr %93, align 4
  br label %94

94:                                               ; preds = %89, %34
  %95 = load i32, ptr %11, align 4
  %96 = icmp sgt i32 %95, 0
  br i1 %96, label %97, label %99

97:                                               ; preds = %94
  %98 = load ptr, ptr %7, align 8
  store i8 -23, ptr %98, align 1
  br label %99

99:                                               ; preds = %97, %94
  br label %100

100:                                              ; preds = %99, %23
  br label %109

101:                                              ; preds = %5
  %102 = load ptr, ptr %7, align 8
  %103 = load i8, ptr %102, align 1
  %104 = zext i8 %103 to i32
  %105 = icmp eq i32 %104, 233
  br i1 %105, label %106, label %108

106:                                              ; preds = %101
  %107 = load ptr, ptr %7, align 8
  store i8 -74, ptr %107, align 1
  br label %108

108:                                              ; preds = %106, %101
  br label %109

109:                                              ; preds = %108, %100, %33
  ret void
}