; Function Attrs: mustprogress nounwind uwtable
define hidden void @_ZN8Rewriter26maybe_rewrite_invokehandleEPhiib(ptr noundef nonnull align 8 dereferenceable(240) %0, ptr nocapture noundef %1, i32 noundef %2, i32 noundef %3, i1 noundef zeroext %4) local_unnamed_addr #0 align 2 {
  %6 = load i8, ptr %1, align 1
  br i1 %4, label %54, label %7

7:                                                ; preds = %5
  %8 = and i8 %6, -2
  %switch = icmp eq i8 %8, -74
  %9 = getelementptr inbounds i8, ptr %0, i64 128
  %10 = load i32, ptr %9, align 8
  %.not = icmp sgt i32 %10, %2
  %or.cond = select i1 %switch, i1 %.not, i1 false
  br i1 %or.cond, label %11, label %56

11:                                               ; preds = %7
  %12 = getelementptr inbounds i8, ptr %0, i64 136
  %13 = load ptr, ptr %12, align 8
  %14 = sext i32 %2 to i64
  %15 = getelementptr inbounds i32, ptr %13, i64 %14
  %16 = load i32, ptr %15, align 4
  %17 = icmp eq i32 %16, 0
  br i1 %17, label %18, label %52

18:                                               ; preds = %11
  %19 = getelementptr inbounds i8, ptr %0, i64 8
  %20 = load ptr, ptr %19, align 8
  %21 = tail call noundef ptr @_ZN12ConstantPool31uncached_klass_ref_at_noresolveEi(ptr noundef nonnull align 8 dereferenceable(68) %20, i32 noundef %2) #9
  %22 = load ptr, ptr getelementptr inbounds (i8, ptr @_ZN6Symbol11_vm_symbolsE, i64 2120), align 8
  %23 = icmp eq ptr %21, %22
  br i1 %23, label %24, label %29

24:                                               ; preds = %18
  %25 = load ptr, ptr getelementptr inbounds (i8, ptr @_ZN9vmClasses8_klassesE, i64 464), align 8
  %26 = load ptr, ptr %19, align 8
  %27 = tail call noundef ptr @_ZN12ConstantPool20uncached_name_ref_atEi(ptr noundef nonnull align 8 dereferenceable(68) %26, i32 noundef %2)
  %28 = tail call noundef i32 @_ZN13MethodHandles29signature_polymorphic_name_idEP5KlassP6Symbol(ptr noundef %25, ptr noundef %27) #9
  %.not27 = icmp eq i32 %28, 0
  br i1 %.not27, label %29, label %.sink.split

29:                                               ; preds = %24, %18
  %30 = load ptr, ptr %19, align 8
  %31 = tail call noundef ptr @_ZN12ConstantPool31uncached_klass_ref_at_noresolveEi(ptr noundef nonnull align 8 dereferenceable(68) %30, i32 noundef %2) #9
  %32 = load ptr, ptr getelementptr inbounds (i8, ptr @_ZN6Symbol11_vm_symbolsE, i64 2128), align 8
  %33 = icmp eq ptr %31, %32
  br i1 %33, label %34, label %49

34:                                               ; preds = %29
  %35 = load ptr, ptr getelementptr inbounds (i8, ptr @_ZN9vmClasses8_klassesE, i64 472), align 8
  %36 = load ptr, ptr %19, align 8
  %37 = tail call noundef ptr @_ZN12ConstantPool20uncached_name_ref_atEi(ptr noundef nonnull align 8 dereferenceable(68) %36, i32 noundef %2)
  %38 = tail call noundef i32 @_ZN13MethodHandles29signature_polymorphic_name_idEP5KlassP6Symbol(ptr noundef %35, ptr noundef %37) #9
  %.not28 = icmp eq i32 %38, 0
  br i1 %.not28, label %49, label %.sink.split

.sink.split:                                      ; preds = %34, %24
  %39 = tail call noundef i32 @_ZN8Rewriter43add_invokedynamic_resolved_references_entryEii(ptr noundef nonnull align 8 dereferenceable(240) %0, i32 noundef %2, i32 noundef %3)
  %40 = getelementptr inbounds i8, ptr %0, i64 224
  %41 = load ptr, ptr %40, align 8
  %42 = sext i32 %3 to i64
  %43 = getelementptr inbounds %class.ResolvedMethodEntry, ptr %41, i64 %42
  %44 = trunc i32 %39 to i16
  %45 = getelementptr inbounds i8, ptr %43, i64 21
  %46 = load i8, ptr %45, align 1
  %47 = or i8 %46, 32
  store i8 %47, ptr %45, align 1
  %48 = getelementptr inbounds i8, ptr %43, i64 8
  store i16 %44, ptr %48, align 8
  br label %49

49:                                               ; preds = %.sink.split, %29, %34
  %.0 = phi i32 [ -1, %34 ], [ -1, %29 ], [ 1, %.sink.split ]
  %50 = load ptr, ptr %12, align 8
  %51 = getelementptr inbounds i32, ptr %50, i64 %14
  store i32 %.0, ptr %51, align 4
  br label %52

52:                                               ; preds = %49, %11
  %.1 = phi i32 [ %.0, %49 ], [ %16, %11 ]
  %53 = icmp sgt i32 %.1, 0
  br i1 %53, label %.sink.split40, label %56

54:                                               ; preds = %5
  %55 = icmp eq i8 %6, -23
  br i1 %55, label %.sink.split40, label %56

.sink.split40:                                    ; preds = %54, %52
  %.sink = phi i8 [ -23, %52 ], [ -74, %54 ]
  store i8 %.sink, ptr %1, align 1
  br label %56

56:                                               ; preds = %.sink.split40, %7, %54, %52
  ret void
}